; Function Attrs: nounwind uwtable
define internal ptr @SHA3_get_rate_bits(ptr noundef readonly captures(none) %0, ptr readnone captures(none) %1) #0 {
  %3 = getelementptr inbounds nuw i8, ptr %0, i64 24
  %4 = load ptr, ptr %3, align 8, !tbaa !16
  %5 = tail call i32 @python_hashlib_Hacl_Hash_SHA3_block_len(ptr noundef %4) #4
  %6 = shl i32 %5, 3
  %7 = zext i32 %6 to i64
  %8 = tail call ptr @PyLong_FromLong(i64 noundef %7) #4
  ret ptr %8
}